; ModuleID = '8/1414.c'
source_filename = "8/1414.c"
target datalayout = "e-m:e-p270:32:32-p271:32:32-p272:64:64-i64:64-f80:128-n8:16:32:64-S128"
target triple = "x86_64-pc-linux-gnu"

@.str = private unnamed_addr constant [5 x i8] c"%d%d\00", align 1
@.str.1 = private unnamed_addr constant [3 x i8] c"%d\00", align 1
@.str.2 = private unnamed_addr constant [4 x i8] c"%d \00", align 1

; Function Attrs: noinline nounwind uwtable
define dso_local i32 @main() #0 {
  %1 = alloca i32, align 4
  %2 = alloca i32, align 4
  %3 = call i32 (i8*, ...) @__isoc99_scanf(i8* getelementptr inbounds ([5 x i8], [5 x i8]* @.str, i64 0, i64 0), i32* %1, i32* %2)
  %4 = load i32, i32* %1, align 4
  %5 = load i32, i32* %2, align 4
  %6 = call i32 @au(i32 %4, i32 %5)
  ret i32 0
}

declare dso_local i32 @__isoc99_scanf(i8*, ...) #1

; Function Attrs: noinline nounwind uwtable
define dso_local i32 @au(i32 %0, i32 %1) #0 {
  %3 = alloca i32, align 4
  %4 = alloca i32, align 4
  %5 = alloca i32, align 4
  %6 = alloca [100 x i32], align 16
  %7 = alloca [100 x i32], align 16
  %8 = alloca i32, align 4
  %9 = alloca i32, align 4
  %10 = alloca i32, align 4
  %11 = alloca i32, align 4
  %12 = alloca i32, align 4
  %13 = alloca i32, align 4
  store i32 %0, i32* %4, align 4
  store i32 %1, i32* %5, align 4
  store i32 0, i32* %8, align 4
  br label %14

14:                                               ; preds = %23, %2
  %15 = load i32, i32* %8, align 4
  %16 = load i32, i32* %4, align 4
  %17 = icmp slt i32 %15, %16
  br i1 %17, label %18, label %26

18:                                               ; preds = %14
  %19 = load i32, i32* %8, align 4
  %20 = sext i32 %19 to i64
  %21 = getelementptr inbounds [100 x i32], [100 x i32]* %6, i64 0, i64 %20
  %22 = call i32 (i8*, ...) @__isoc99_scanf(i8* getelementptr inbounds ([3 x i8], [3 x i8]* @.str.1, i64 0, i64 0), i32* %21)
  br label %23

23:                                               ; preds = %18
  %24 = load i32, i32* %8, align 4
  %25 = add nsw i32 %24, 1
  store i32 %25, i32* %8, align 4
  br label %14

26:                                               ; preds = %14
  store i32 0, i32* %9, align 4
  br label %27

27:                                               ; preds = %36, %26
  %28 = load i32, i32* %9, align 4
  %29 = load i32, i32* %5, align 4
  %30 = icmp slt i32 %28, %29
  br i1 %30, label %31, label %39

31:                                               ; preds = %27
  %32 = load i32, i32* %9, align 4
  %33 = sext i32 %32 to i64
  %34 = getelementptr inbounds [100 x i32], [100 x i32]* %7, i64 0, i64 %33
  %35 = call i32 (i8*, ...) @__isoc99_scanf(i8* getelementptr inbounds ([3 x i8], [3 x i8]* @.str.1, i64 0, i64 0), i32* %34)
  br label %36

36:                                               ; preds = %31
  %37 = load i32, i32* %9, align 4
  %38 = add nsw i32 %37, 1
  store i32 %38, i32* %9, align 4
  br label %27

39:                                               ; preds = %27
  store i32 0, i32* %8, align 4
  br label %40

40:                                               ; preds = %86, %39
  %41 = load i32, i32* %8, align 4
  %42 = load i32, i32* %4, align 4
  %43 = icmp slt i32 %41, %42
  br i1 %43, label %44, label %89

44:                                               ; preds = %40
  store i32 0, i32* %10, align 4
  br label %45

45:                                               ; preds = %82, %44
  %46 = load i32, i32* %10, align 4
  %47 = load i32, i32* %4, align 4
  %48 = load i32, i32* %8, align 4
  %49 = sub nsw i32 %47, %48
  %50 = sub nsw i32 %49, 1
  %51 = icmp slt i32 %46, %50
  br i1 %51, label %52, label %85

52:                                               ; preds = %45
  %53 = load i32, i32* %10, align 4
  %54 = sext i32 %53 to i64
  %55 = getelementptr inbounds [100 x i32], [100 x i32]* %6, i64 0, i64 %54
  %56 = load i32, i32* %55, align 4
  %57 = load i32, i32* %10, align 4
  %58 = add nsw i32 %57, 1
  %59 = sext i32 %58 to i64
  %60 = getelementptr inbounds [100 x i32], [100 x i32]* %6, i64 0, i64 %59
  %61 = load i32, i32* %60, align 4
  %62 = icmp sgt i32 %56, %61
  br i1 %62, label %63, label %81

63:                                               ; preds = %52
  %64 = load i32, i32* %10, align 4
  %65 = sext i32 %64 to i64
  %66 = getelementptr inbounds [100 x i32], [100 x i32]* %6, i64 0, i64 %65
  %67 = load i32, i32* %66, align 4
  store i32 %67, i32* %12, align 4
  %68 = load i32, i32* %10, align 4
  %69 = add nsw i32 %68, 1
  %70 = sext i32 %69 to i64
  %71 = getelementptr inbounds [100 x i32], [100 x i32]* %6, i64 0, i64 %70
  %72 = load i32, i32* %71, align 4
  %73 = load i32, i32* %10, align 4
  %74 = sext i32 %73 to i64
  %75 = getelementptr inbounds [100 x i32], [100 x i32]* %6, i64 0, i64 %74
  store i32 %72, i32* %75, align 4
  %76 = load i32, i32* %12, align 4
  %77 = load i32, i32* %10, align 4
  %78 = add nsw i32 %77, 1
  %79 = sext i32 %78 to i64
  %80 = getelementptr inbounds [100 x i32], [100 x i32]* %6, i64 0, i64 %79
  store i32 %76, i32* %80, align 4
  br label %81

81:                                               ; preds = %63, %52
  br label %82

82:                                               ; preds = %81
  %83 = load i32, i32* %10, align 4
  %84 = add nsw i32 %83, 1
  store i32 %84, i32* %10, align 4
  br label %45

85:                                               ; preds = %45
  br label %86

86:                                               ; preds = %85
  %87 = load i32, i32* %8, align 4
  %88 = add nsw i32 %87, 1
  store i32 %88, i32* %8, align 4
  br label %40

89:                                               ; preds = %40
  store i32 0, i32* %9, align 4
  br label %90

90:                                               ; preds = %136, %89
  %91 = load i32, i32* %9, align 4
  %92 = load i32, i32* %5, align 4
  %93 = icmp slt i32 %91, %92
  br i1 %93, label %94, label %139

94:                                               ; preds = %90
  store i32 0, i32* %11, align 4
  br label %95

95:                                               ; preds = %132, %94
  %96 = load i32, i32* %11, align 4
  %97 = load i32, i32* %5, align 4
  %98 = load i32, i32* %9, align 4
  %99 = sub nsw i32 %97, %98
  %100 = sub nsw i32 %99, 1
  %101 = icmp slt i32 %96, %100
  br i1 %101, label %102, label %135

102:                                              ; preds = %95
  %103 = load i32, i32* %11, align 4
  %104 = sext i32 %103 to i64
  %105 = getelementptr inbounds [100 x i32], [100 x i32]* %7, i64 0, i64 %104
  %106 = load i32, i32* %105, align 4
  %107 = load i32, i32* %11, align 4
  %108 = add nsw i32 %107, 1
  %109 = sext i32 %108 to i64
  %110 = getelementptr inbounds [100 x i32], [100 x i32]* %7, i64 0, i64 %109
  %111 = load i32, i32* %110, align 4
  %112 = icmp sgt i32 %106, %111
  br i1 %112, label %113, label %131

113:                                              ; preds = %102
  %114 = load i32, i32* %11, align 4
  %115 = sext i32 %114 to i64
  %116 = getelementptr inbounds [100 x i32], [100 x i32]* %7, i64 0, i64 %115
  %117 = load i32, i32* %116, align 4
  store i32 %117, i32* %13, align 4
  %118 = load i32, i32* %11, align 4
  %119 = add nsw i32 %118, 1
  %120 = sext i32 %119 to i64
  %121 = getelementptr inbounds [100 x i32], [100 x i32]* %7, i64 0, i64 %120
  %122 = load i32, i32* %121, align 4
  %123 = load i32, i32* %11, align 4
  %124 = sext i32 %123 to i64
  %125 = getelementptr inbounds [100 x i32], [100 x i32]* %7, i64 0, i64 %124
  store i32 %122, i32* %125, align 4
  %126 = load i32, i32* %13, align 4
  %127 = load i32, i32* %11, align 4
  %128 = add nsw i32 %127, 1
  %129 = sext i32 %128 to i64
  %130 = getelementptr inbounds [100 x i32], [100 x i32]* %7, i64 0, i64 %129
  store i32 %126, i32* %130, align 4
  br label %131

131:                                              ; preds = %113, %102
  br label %132

132:                                              ; preds = %131
  %133 = load i32, i32* %11, align 4
  %134 = add nsw i32 %133, 1
  store i32 %134, i32* %11, align 4
  br label %95

135:                                              ; preds = %95
  br label %136

136:                                              ; preds = %135
  %137 = load i32, i32* %9, align 4
  %138 = add nsw i32 %137, 1
  store i32 %138, i32* %9, align 4
  br label %90

139:                                              ; preds = %90
  %140 = load i32, i32* %4, align 4
  store i32 %140, i32* %10, align 4
  br label %141

141:                                              ; preds = %157, %139
  %142 = load i32, i32* %10, align 4
  %143 = load i32, i32* %4, align 4
  %144 = load i32, i32* %5, align 4
  %145 = add nsw i32 %143, %144
  %146 = icmp slt i32 %142, %145
  br i1 %146, label %147, label %160

147:                                              ; preds = %141
  %148 = load i32, i32* %10, align 4
  %149 = load i32, i32* %4, align 4
  %150 = sub nsw i32 %148, %149
  %151 = sext i32 %150 to i64
  %152 = getelementptr inbounds [100 x i32], [100 x i32]* %7, i64 0, i64 %151
  %153 = load i32, i32* %152, align 4
  %154 = load i32, i32* %10, align 4
  %155 = sext i32 %154 to i64
  %156 = getelementptr inbounds [100 x i32], [100 x i32]* %6, i64 0, i64 %155
  store i32 %153, i32* %156, align 4
  br label %157

157:                                              ; preds = %147
  %158 = load i32, i32* %10, align 4
  %159 = add nsw i32 %158, 1
  store i32 %159, i32* %10, align 4
  br label %141

160:                                              ; preds = %141
  store i32 0, i32* %10, align 4
  br label %161

161:                                              ; preds = %174, %160
  %162 = load i32, i32* %10, align 4
  %163 = load i32, i32* %4, align 4
  %164 = load i32, i32* %5, align 4
  %165 = add nsw i32 %163, %164
  %166 = sub nsw i32 %165, 1
  %167 = icmp slt i32 %162, %166
  br i1 %167, label %168, label %177

168:                                              ; preds = %161
  %169 = load i32, i32* %10, align 4
  %170 = sext i32 %169 to i64
  %171 = getelementptr inbounds [100 x i32], [100 x i32]* %6, i64 0, i64 %170
  %172 = load i32, i32* %171, align 4
  %173 = call i32 (i8*, ...) @printf(i8* getelementptr inbounds ([4 x i8], [4 x i8]* @.str.2, i64 0, i64 0), i32 %172)
  br label %174

174:                                              ; preds = %168
  %175 = load i32, i32* %10, align 4
  %176 = add nsw i32 %175, 1
  store i32 %176, i32* %10, align 4
  br label %161

177:                                              ; preds = %161
  %178 = load i32, i32* %4, align 4
  %179 = load i32, i32* %5, align 4
  %180 = add nsw i32 %178, %179
  %181 = sub nsw i32 %180, 1
  %182 = sext i32 %181 to i64
  %183 = getelementptr inbounds [100 x i32], [100 x i32]* %6, i64 0, i64 %182
  %184 = load i32, i32* %183, align 4
  %185 = call i32 (i8*, ...) @printf(i8* getelementptr inbounds ([3 x i8], [3 x i8]* @.str.1, i64 0, i64 0), i32 %184)
  %186 = load i32, i32* %3, align 4
  ret i32 %186
}

declare dso_local i32 @printf(i8*, ...) #1


!llvm.module.flags = !{!0}
!llvm.ident = !{!1}

!0 = !{i32 1, !"wchar_size", i32 4}
!1 = !{!"clang version 10.0.0-4ubuntu1 "}
